target datalayout = "e-m:e-p270:32:32-p271:32:32-p272:64:64-i64:64-i128:128-f80:128-n8:16:32:64-S128"
target triple = "x86_64-pc-linux-gnu"

%struct.dirent = type { i64, i64, i16, i8, [256 x i8] }

@.str.35 = private unnamed_addr constant [17 x i8] c"pg_internal.init\00", align 1
@.str.36 = private unnamed_addr constant [10 x i8] c"global/%s\00", align 1
@.str.37 = private unnamed_addr constant [10 x i8] c"pg_tblspc\00", align 1
@.str.38 = private unnamed_addr constant [5 x i8] c"base\00", align 1
@.str.39 = private unnamed_addr constant [11 x i8] c"0123456789\00", align 1
@.str.40 = private unnamed_addr constant [9 x i8] c"%s/%s/%s\00", align 1
@.str.41 = private unnamed_addr constant [16 x i8] c"PG_18_202502112\00", align 1

; Function Attrs: nounwind uwtable
define dso_local void @RelationCacheInitFileRemove() #0 {
  %1 = alloca ptr, align 8
  %2 = alloca ptr, align 8
  %3 = alloca ptr, align 8
  %4 = alloca [1050 x i8], align 16
  call void @llvm.lifetime.start.p0(i64 8, ptr %1) #11
  store ptr @.str.37, ptr %1, align 8
  call void @llvm.lifetime.start.p0(i64 8, ptr %2) #11
  call void @llvm.lifetime.start.p0(i64 8, ptr %3) #11
  call void @llvm.lifetime.start.p0(i64 1050, ptr %4) #11
  %5 = getelementptr inbounds [1050 x i8], ptr %4, i64 0, i64 0
  %6 = call i32 (ptr, i64, ptr, ...) @pg_snprintf(ptr noundef %5, i64 noundef 1050, ptr noundef @.str.36, ptr noundef @.str.35)
  %7 = getelementptr inbounds [1050 x i8], ptr %4, i64 0, i64 0
  call void @unlink_initfile(ptr noundef %7, i32 noundef 15)
  call void @RelationCacheInitFileRemoveInDir(ptr noundef @.str.38)
  %8 = load ptr, ptr %1, align 8
  %9 = call ptr @AllocateDir(ptr noundef %8)
  store ptr %9, ptr %2, align 8
  br label %10

10:                                               ; preds = %33, %0
  %11 = load ptr, ptr %2, align 8
  %12 = load ptr, ptr %1, align 8
  %13 = call ptr @ReadDirExtended(ptr noundef %11, ptr noundef %12, i32 noundef 15)
  store ptr %13, ptr %3, align 8
  %14 = icmp ne ptr %13, null
  br i1 %14, label %15, label %34

15:                                               ; preds = %10
  %16 = load ptr, ptr %3, align 8
  %17 = getelementptr inbounds nuw %struct.dirent, ptr %16, i32 0, i32 4
  %18 = getelementptr inbounds [256 x i8], ptr %17, i64 0, i64 0
  %19 = call i64 @strspn(ptr noundef %18, ptr noundef @.str.39) #14
  %20 = load ptr, ptr %3, align 8
  %21 = getelementptr inbounds nuw %struct.dirent, ptr %20, i32 0, i32 4
  %22 = getelementptr inbounds [256 x i8], ptr %21, i64 0, i64 0
  %23 = call i64 @strlen(ptr noundef %22) #14
  %24 = icmp eq i64 %19, %23
  br i1 %24, label %25, label %33

25:                                               ; preds = %15
  %26 = getelementptr inbounds [1050 x i8], ptr %4, i64 0, i64 0
  %27 = load ptr, ptr %1, align 8
  %28 = load ptr, ptr %3, align 8
  %29 = getelementptr inbounds nuw %struct.dirent, ptr %28, i32 0, i32 4
  %30 = getelementptr inbounds [256 x i8], ptr %29, i64 0, i64 0
  %31 = call i32 (ptr, i64, ptr, ...) @pg_snprintf(ptr noundef %26, i64 noundef 1050, ptr noundef @.str.40, ptr noundef %27, ptr noundef %30, ptr noundef @.str.41)
  %32 = getelementptr inbounds [1050 x i8], ptr %4, i64 0, i64 0
  call void @RelationCacheInitFileRemoveInDir(ptr noundef %32)
  br label %33

33:                                               ; preds = %25, %15
  br label %10, !llvm.loop !43

34:                                               ; preds = %10
  %35 = load ptr, ptr %2, align 8
  %36 = call i32 @FreeDir(ptr noundef %35)
  call void @llvm.lifetime.end.p0(i64 1050, ptr %4) #11
  call void @llvm.lifetime.end.p0(i64 8, ptr %3) #11
  call void @llvm.lifetime.end.p0(i64 8, ptr %2) #11
  call void @llvm.lifetime.end.p0(i64 8, ptr %1) #11
  ret void
}